; Function Attrs: mustprogress uwtable
define internal void @_ZNK5faiss12_GLOBAL__N_114IVFSQScannerIPINS0_10DCTemplateINS0_17QuantizerTemplateINS0_9Codec8bitELb1ELi1EEENS0_12SimilarityIPILi1EEELi1EEELi0EE16scan_codes_rangeEmPKhPKlfRNS_16RangeQueryResultE(ptr nocapture noundef nonnull readonly align 8 dereferenceable(104) %0, i64 noundef %1, ptr nocapture noundef readonly %2, ptr nocapture noundef readonly %3, float noundef %4, ptr noundef nonnull align 8 dereferenceable(24) %5) unnamed_addr #0 align 2 {
  %.not18 = icmp eq i64 %1, 0
  br i1 %.not18, label %._crit_edge, label %.lr.ph

.lr.ph:                                           ; preds = %6
  %7 = getelementptr inbounds i8, ptr %0, i64 100
  %8 = getelementptr inbounds i8, ptr %0, i64 80
  %9 = getelementptr inbounds i8, ptr %0, i64 64
  %10 = getelementptr inbounds i8, ptr %0, i64 88
  %11 = getelementptr inbounds i8, ptr %0, i64 92
  %12 = getelementptr inbounds i8, ptr %0, i64 17
  %13 = getelementptr inbounds i8, ptr %0, i64 8
  %14 = getelementptr inbounds i8, ptr %0, i64 32
  br label %15

15:                                               ; preds = %.lr.ph, %47
  %.017 = phi ptr [ %2, %.lr.ph ], [ %50, %47 ]
  %.01315 = phi i64 [ 0, %.lr.ph ], [ %48, %47 ]
  %16 = load float, ptr %7, align 4
  %17 = load i64, ptr %8, align 8
  %.not.i.i = icmp eq i64 %17, 0
  br i1 %.not.i.i, label %_ZNK5faiss12_GLOBAL__N_110DCTemplateINS0_17QuantizerTemplateINS0_9Codec8bitELb1ELi1EEENS0_12SimilarityIPILi1EEELi1EE13query_to_codeEPKh.exit, label %.lr.ph.i.i

.lr.ph.i.i:                                       ; preds = %15
  %18 = load ptr, ptr %9, align 8
  %19 = load float, ptr %10, align 8
  %20 = load float, ptr %11, align 4
  br label %21

21:                                               ; preds = %21, %.lr.ph.i.i
  %.019.i.i = phi i64 [ 0, %.lr.ph.i.i ], [ %32, %21 ]
  %.sroa.5.018.i.i = phi float [ 0.000000e+00, %.lr.ph.i.i ], [ %31, %21 ]
  %.sroa.2.017.i.i = phi ptr [ %18, %.lr.ph.i.i ], [ %29, %21 ]
  %sext.i.i = shl i64 %.019.i.i, 32
  %22 = ashr exact i64 %sext.i.i, 32
  %23 = getelementptr inbounds i8, ptr %.017, i64 %22
  %24 = load i8, ptr %23, align 1
  %25 = uitofp i8 %24 to float
  %26 = fadd float %25, 5.000000e-01
  %27 = fdiv float %26, 2.550000e+02
  %28 = tail call noundef float @llvm.fmuladd.f32(float %27, float %20, float %19)
  %29 = getelementptr inbounds i8, ptr %.sroa.2.017.i.i, i64 4
  %30 = load float, ptr %.sroa.2.017.i.i, align 4
  %31 = tail call float @llvm.fmuladd.f32(float %30, float %28, float %.sroa.5.018.i.i)
  %32 = add nuw i64 %.019.i.i, 1
  %exitcond.not.i.i = icmp eq i64 %32, %17
  br i1 %exitcond.not.i.i, label %_ZNK5faiss12_GLOBAL__N_110DCTemplateINS0_17QuantizerTemplateINS0_9Codec8bitELb1ELi1EEENS0_12SimilarityIPILi1EEELi1EE13query_to_codeEPKh.exit, label %21, !llvm.loop !61

_ZNK5faiss12_GLOBAL__N_110DCTemplateINS0_17QuantizerTemplateINS0_9Codec8bitELb1ELi1EEENS0_12SimilarityIPILi1EEELi1EE13query_to_codeEPKh.exit: ; preds = %21, %15
  %.sroa.5.0.lcssa.i.i = phi float [ 0.000000e+00, %15 ], [ %31, %21 ]
  %33 = fadd float %16, %.sroa.5.0.lcssa.i.i
  %34 = fcmp ogt float %33, %4
  br i1 %34, label %35, label %47

35:                                               ; preds = %_ZNK5faiss12_GLOBAL__N_110DCTemplateINS0_17QuantizerTemplateINS0_9Codec8bitELb1ELi1EEENS0_12SimilarityIPILi1EEELi1EE13query_to_codeEPKh.exit
  %36 = load i8, ptr %12, align 1
  %37 = and i8 %36, 1
  %.not = icmp eq i8 %37, 0
  br i1 %.not, label %42, label %38

38:                                               ; preds = %35
  %39 = load i64, ptr %13, align 8
  %40 = shl i64 %39, 32
  %41 = or i64 %40, %.01315
  br label %45

42:                                               ; preds = %35
  %43 = getelementptr inbounds i64, ptr %3, i64 %.01315
  %44 = load i64, ptr %43, align 8
  br label %45

45:                                               ; preds = %42, %38
  %46 = phi i64 [ %41, %38 ], [ %44, %42 ]
  tail call void @_ZN5faiss16RangeQueryResult3addEfl(ptr noundef nonnull align 8 dereferenceable(24) %5, float noundef %33, i64 noundef %46)
  br label %47

47:                                               ; preds = %_ZNK5faiss12_GLOBAL__N_110DCTemplateINS0_17QuantizerTemplateINS0_9Codec8bitELb1ELi1EEENS0_12SimilarityIPILi1EEELi1EE13query_to_codeEPKh.exit, %45
  %48 = add nuw i64 %.01315, 1
  %49 = load i64, ptr %14, align 8
  %50 = getelementptr inbounds i8, ptr %.017, i64 %49
  %exitcond.not = icmp eq i64 %48, %1
  br i1 %exitcond.not, label %._crit_edge, label %15, !llvm.loop !131

._crit_edge:                                      ; preds = %47, %6
  ret void
}